target datalayout = "e-m:e-p270:32:32-p271:32:32-p272:64:64-i64:64-i128:128-f80:128-n8:16:32:64-S128"
target triple = "x86_64-pc-linux-gnu"

%struct._generic_SUNMatrix = type { ptr, ptr, ptr }
%struct._SUNMatrixContent_Sparse = type { i64, i64, i64, i64, ptr, i32, ptr, ptr, ptr, ptr, ptr, ptr }

; Function Attrs: nounwind uwtable
define i32 @SUNSparseMatrix_Reallocate(ptr noundef %0, i64 noundef %1) #0 {
  %3 = alloca ptr, align 8
  %4 = alloca i64, align 8
  %5 = alloca ptr, align 8
  store ptr %0, ptr %3, align 8, !tbaa !12
  store i64 %1, ptr %4, align 8, !tbaa !3
  call void @llvm.lifetime.start.p0(i64 8, ptr %5) #8
  %6 = load ptr, ptr %3, align 8, !tbaa !12
  %7 = getelementptr inbounds nuw %struct._generic_SUNMatrix, ptr %6, i32 0, i32 2
  %8 = load ptr, ptr %7, align 8, !tbaa !46
  store ptr %8, ptr %5, align 8, !tbaa !9
  %9 = load ptr, ptr %3, align 8, !tbaa !12
  %10 = getelementptr inbounds nuw %struct._generic_SUNMatrix, ptr %9, i32 0, i32 0
  %11 = load ptr, ptr %10, align 8, !tbaa !29
  %12 = getelementptr inbounds nuw %struct._SUNMatrixContent_Sparse, ptr %11, i32 0, i32 6
  %13 = load ptr, ptr %12, align 8, !tbaa !44
  %14 = load i64, ptr %4, align 8, !tbaa !3
  %15 = mul i64 %14, 8
  %16 = call ptr @realloc(ptr noundef %13, i64 noundef %15) #11
  %17 = load ptr, ptr %3, align 8, !tbaa !12
  %18 = getelementptr inbounds nuw %struct._generic_SUNMatrix, ptr %17, i32 0, i32 0
  %19 = load ptr, ptr %18, align 8, !tbaa !29
  %20 = getelementptr inbounds nuw %struct._SUNMatrixContent_Sparse, ptr %19, i32 0, i32 6
  store ptr %16, ptr %20, align 8, !tbaa !44
  %21 = load ptr, ptr %3, align 8, !tbaa !12
  %22 = getelementptr inbounds nuw %struct._generic_SUNMatrix, ptr %21, i32 0, i32 0
  %23 = load ptr, ptr %22, align 8, !tbaa !29
  %24 = getelementptr inbounds nuw %struct._SUNMatrixContent_Sparse, ptr %23, i32 0, i32 4
  %25 = load ptr, ptr %24, align 8, !tbaa !43
  %26 = load i64, ptr %4, align 8, !tbaa !3
  %27 = mul i64 %26, 8
  %28 = call ptr @realloc(ptr noundef %25, i64 noundef %27) #11
  %29 = load ptr, ptr %3, align 8, !tbaa !12
  %30 = getelementptr inbounds nuw %struct._generic_SUNMatrix, ptr %29, i32 0, i32 0
  %31 = load ptr, ptr %30, align 8, !tbaa !29
  %32 = getelementptr inbounds nuw %struct._SUNMatrixContent_Sparse, ptr %31, i32 0, i32 4
  store ptr %28, ptr %32, align 8, !tbaa !43
  %33 = load i64, ptr %4, align 8, !tbaa !3
  %34 = load ptr, ptr %3, align 8, !tbaa !12
  %35 = getelementptr inbounds nuw %struct._generic_SUNMatrix, ptr %34, i32 0, i32 0
  %36 = load ptr, ptr %35, align 8, !tbaa !29
  %37 = getelementptr inbounds nuw %struct._SUNMatrixContent_Sparse, ptr %36, i32 0, i32 2
  store i64 %33, ptr %37, align 8, !tbaa !37
  call void @llvm.lifetime.end.p0(i64 8, ptr %5) #8
  ret i32 0
}