; Function Attrs: mustprogress nounwind willreturn uwtable
define noundef i32 @SUNSparseMatrix_Reallocate(ptr noundef readonly captures(none) %0, i64 noundef %1) local_unnamed_addr #3 {
  %3 = load ptr, ptr %0, align 8, !tbaa !20
  %4 = getelementptr inbounds nuw i8, ptr %3, i64 48
  %5 = load ptr, ptr %4, align 8, !tbaa !34
  %6 = shl i64 %1, 3
  %7 = tail call ptr @realloc(ptr noundef %5, i64 noundef %6) #20
  %8 = load ptr, ptr %0, align 8, !tbaa !20
  %9 = getelementptr inbounds nuw i8, ptr %8, i64 48
  store ptr %7, ptr %9, align 8, !tbaa !34
  %10 = getelementptr inbounds nuw i8, ptr %8, i64 32
  %11 = load ptr, ptr %10, align 8, !tbaa !33
  %12 = tail call ptr @realloc(ptr noundef %11, i64 noundef %6) #20
  %13 = load ptr, ptr %0, align 8, !tbaa !20
  %14 = getelementptr inbounds nuw i8, ptr %13, i64 32
  store ptr %12, ptr %14, align 8, !tbaa !33
  %15 = getelementptr inbounds nuw i8, ptr %13, i64 16
  store i64 %1, ptr %15, align 8, !tbaa !30
  ret i32 0
}